; Function Attrs: mustprogress nofree norecurse nosync nounwind memory(argmem: readwrite) uwtable
define noundef range(i32 0, 2) i32 @_ZN10duckdb_hll11hllDenseAddEPhS0_m(ptr noundef captures(none) %0, ptr noundef captures(address) %1, i64 noundef %2) local_unnamed_addr #2 {
  %4 = alloca i64, align 8
  call void @llvm.lifetime.start.p0(i64 8, ptr nonnull %4) #21
  %5 = call noundef i32 @_ZN10duckdb_hll9hllPatLenEPhmPl(ptr noundef %1, i64 noundef %2, ptr noundef nonnull %4)
  %6 = load i64, ptr %4, align 8, !tbaa !3
  %7 = mul nsw i64 %6, 6
  %8 = sdiv i64 %7, 8
  %9 = and i64 %7, 6
  %10 = sub nuw nsw i64 8, %9
  %11 = getelementptr inbounds nuw i8, ptr %0, i64 %8
  %12 = load i8, ptr %11, align 1, !tbaa !9
  %13 = zext i8 %12 to i64
  %14 = getelementptr i8, ptr %11, i64 1
  %15 = load i8, ptr %14, align 1, !tbaa !9
  %16 = zext i8 %15 to i64
  %17 = lshr i64 %13, %9
  %18 = shl nuw nsw i64 %16, %10
  %19 = or i64 %18, %17
  %20 = trunc nuw nsw i64 %19 to i32
  %21 = and i32 %20, 63
  %22 = and i32 %5, 255
  %23 = icmp samesign ult i32 %21, %22
  br i1 %23, label %24, label %_ZN10duckdb_hllL11hllDenseSetEPhlh.exit

24:                                               ; preds = %3
  %25 = zext nneg i32 %22 to i64
  %26 = trunc nuw nsw i64 %9 to i8
  %27 = shl i8 63, %26
  %28 = xor i8 %27, -1
  %29 = and i8 %12, %28
  %30 = shl nuw nsw i64 %25, %9
  %31 = trunc i64 %30 to i8
  %32 = or i8 %29, %31
  store i8 %32, ptr %11, align 1, !tbaa !9
  %33 = trunc nuw nsw i64 %10 to i16
  %34 = ashr i16 -64, %33
  %35 = trunc nsw i16 %34 to i8
  %36 = and i8 %15, %35
  %37 = lshr i64 %25, %10
  %38 = trunc nuw nsw i64 %37 to i8
  %39 = or i8 %36, %38
  store i8 %39, ptr %14, align 1, !tbaa !9
  br label %_ZN10duckdb_hllL11hllDenseSetEPhlh.exit

_ZN10duckdb_hllL11hllDenseSetEPhlh.exit:          ; preds = %3, %24
  %.0.i = phi i32 [ 1, %24 ], [ 0, %3 ]
  call void @llvm.lifetime.end.p0(i64 8, ptr nonnull %4) #21
  ret i32 %.0.i
}